target datalayout = "e-m:e-p270:32:32-p271:32:32-p272:64:64-i64:64-i128:128-f80:128-n8:16:32:64-S128"
target triple = "x86_64-pc-linux-gnu"

@_ZN22DefaultRndNumGenerator5impl_E = dso_local global ptr null, align 8
@_ZN22DefaultRndNumGeneratorC1EmP8Sequence = dso_local unnamed_addr alias void (ptr, i64, ptr), ptr @_ZN22DefaultRndNumGeneratorC2EmP8Sequence

; Function Attrs: mustprogress uwtable
define dso_local noundef ptr @_ZN22DefaultRndNumGenerator21make_rndnum_generatorEm(i64 noundef %0) #4 align 2 personality ptr @__gxx_personality_v0 {
  %2 = alloca ptr, align 8
  %3 = alloca i64, align 8
  %4 = alloca ptr, align 8
  %5 = alloca ptr, align 8
  %6 = alloca i32, align 4
  store i64 %0, ptr %3, align 8
  %7 = load ptr, ptr @_ZN22DefaultRndNumGenerator5impl_E, align 8
  %8 = icmp ne ptr %7, null
  br i1 %8, label %9, label %11

9:                                                ; preds = %1
  %10 = load ptr, ptr @_ZN22DefaultRndNumGenerator5impl_E, align 8
  store ptr %10, ptr %2, align 8
  br label %22

11:                                               ; preds = %1
  %12 = call noundef ptr @_ZN15SequenceFactory13make_sequenceEv()
  store ptr %12, ptr %4, align 8
  %13 = call noalias noundef nonnull ptr @_Znwm(i64 noundef 56) #11
  %14 = load i64, ptr %3, align 8
  %15 = load ptr, ptr %4, align 8
  invoke void @_ZN22DefaultRndNumGeneratorC1EmP8Sequence(ptr noundef nonnull align 8 dereferenceable(56) %13, i64 noundef %14, ptr noundef %15)
          to label %16 unwind label %18

16:                                               ; preds = %11
  store ptr %13, ptr @_ZN22DefaultRndNumGenerator5impl_E, align 8
  %17 = load ptr, ptr @_ZN22DefaultRndNumGenerator5impl_E, align 8
  store ptr %17, ptr %2, align 8
  br label %22

18:                                               ; preds = %11
  %19 = landingpad { ptr, i32 }
          cleanup
  %20 = extractvalue { ptr, i32 } %19, 0
  store ptr %20, ptr %5, align 8
  %21 = extractvalue { ptr, i32 } %19, 1
  store i32 %21, ptr %6, align 4
  call void @_ZdlPv(ptr noundef %13) #10
  br label %24

22:                                               ; preds = %16, %9
  %23 = load ptr, ptr %2, align 8
  ret ptr %23

24:                                               ; preds = %18
  %25 = load ptr, ptr %5, align 8
  %26 = load i32, ptr %6, align 4
  %27 = insertvalue { ptr, i32 } poison, ptr %25, 0
  %28 = insertvalue { ptr, i32 } %27, i32 %26, 1
  resume { ptr, i32 } %28
}