; Function Attrs: mustprogress uwtable
define dso_local noundef nonnull ptr @_ZN22DefaultRndNumGenerator21make_rndnum_generatorEm(i64 noundef %0) local_unnamed_addr #3 align 2 personality ptr @__gxx_personality_v0 {
  %2 = alloca %"class.std::allocator", align 1
  %3 = load ptr, ptr @_ZN22DefaultRndNumGenerator5impl_E, align 8
  %.not = icmp eq ptr %3, null
  br i1 %.not, label %4, label %15

4:                                                ; preds = %1
  %5 = tail call noundef ptr @_ZN15SequenceFactory13make_sequenceEv()
  %6 = tail call noalias noundef nonnull dereferenceable(56) ptr @_Znwm(i64 noundef 56) #14
  call void @llvm.lifetime.start.p0(i64 1, ptr nonnull %2)
  invoke void @_ZN18AbsRndNumGeneratorC2Ev(ptr noundef nonnull align 8 dereferenceable(8) %6)
          to label %.noexc unwind label %13

.noexc:                                           ; preds = %4
  store ptr getelementptr inbounds ({ [13 x ptr] }, ptr @_ZTV22DefaultRndNumGenerator, i64 0, i32 0, i64 2), ptr %6, align 8
  %7 = getelementptr inbounds i8, ptr %6, i64 8
  store i64 0, ptr %7, align 8
  %8 = getelementptr inbounds i8, ptr %6, i64 16
  call void @_ZNSaIcEC1Ev(ptr noundef nonnull align 1 dereferenceable(1) %2) #11
  invoke void @_ZNSt7__cxx1112basic_stringIcSt11char_traitsIcESaIcEEC1EPKcRKS3_(ptr noundef nonnull align 8 dereferenceable(32) %8, ptr noundef nonnull @.str, ptr noundef nonnull align 1 dereferenceable(1) %2)
          to label %11 unwind label %9

9:                                                ; preds = %.noexc
  %10 = landingpad { ptr, i32 }
          cleanup
  call void @_ZNSaIcED1Ev(ptr noundef nonnull align 1 dereferenceable(1) %2) #11
  call void @_ZN18AbsRndNumGeneratorD2Ev(ptr noundef nonnull align 8 dereferenceable(8) %6) #11
  br label %.body

11:                                               ; preds = %.noexc
  call void @_ZNSaIcED1Ev(ptr noundef nonnull align 1 dereferenceable(1) %2) #11
  %12 = getelementptr inbounds i8, ptr %6, i64 48
  store ptr %5, ptr %12, align 8
  call void @llvm.lifetime.end.p0(i64 1, ptr nonnull %2)
  store ptr %6, ptr @_ZN22DefaultRndNumGenerator5impl_E, align 8
  br label %15

13:                                               ; preds = %4
  %14 = landingpad { ptr, i32 }
          cleanup
  br label %.body

.body:                                            ; preds = %9, %13
  %eh.lpad-body = phi { ptr, i32 } [ %14, %13 ], [ %10, %9 ]
  call void @_ZdlPv(ptr noundef nonnull %6) #13
  resume { ptr, i32 } %eh.lpad-body

15:                                               ; preds = %1, %11
  %.0 = phi ptr [ %6, %11 ], [ %3, %1 ]
  ret ptr %.0
}